target datalayout = "e-m:e-p270:32:32-p271:32:32-p272:64:64-i64:64-i128:128-f80:128-n8:16:32:64-S128"
target triple = "x86_64-pc-linux-gnu"

%struct.decNumber = type { i32, i32, i8, [1 x i16] }
%struct.decContext = type { i32, i32, i32, i32, i32, i32, i8 }

@d2utable = dso_local constant [50 x i8] c"\00\01\01\01\02\02\02\03\03\03\04\04\04\05\05\05\06\06\06\07\07\07\08\08\08\09\09\09\0A\0A\0A\0B\0B\0B\0C\0C\0C\0D\0D\0D\0E\0E\0E\0F\0F\0F\10\10\10\11", align 16

; Function Attrs: nounwind uwtable
define dso_local ptr @decNumberZero(ptr noundef %0) #0 {
  %2 = alloca ptr, align 8
  store ptr %0, ptr %2, align 8, !tbaa !4
  %3 = load ptr, ptr %2, align 8, !tbaa !4
  %4 = getelementptr inbounds nuw %struct.decNumber, ptr %3, i32 0, i32 2
  store i8 0, ptr %4, align 4, !tbaa !10
  %5 = load ptr, ptr %2, align 8, !tbaa !4
  %6 = getelementptr inbounds nuw %struct.decNumber, ptr %5, i32 0, i32 1
  store i32 0, ptr %6, align 4, !tbaa !19
  %7 = load ptr, ptr %2, align 8, !tbaa !4
  %8 = getelementptr inbounds nuw %struct.decNumber, ptr %7, i32 0, i32 0
  store i32 1, ptr %8, align 4, !tbaa !18
  %9 = load ptr, ptr %2, align 8, !tbaa !4
  %10 = getelementptr inbounds nuw %struct.decNumber, ptr %9, i32 0, i32 3
  %11 = getelementptr inbounds [1 x i16], ptr %10, i64 0, i64 0
  store i16 0, ptr %11, align 2, !tbaa !14
  %12 = load ptr, ptr %2, align 8, !tbaa !4
  ret ptr %12
}

; Function Attrs: nounwind uwtable
define internal void @decStatus(ptr noundef %0, i32 noundef %1, ptr noundef %2) #0 {
  %4 = alloca ptr, align 8
  %5 = alloca i32, align 4
  %6 = alloca ptr, align 8
  store ptr %0, ptr %4, align 8, !tbaa !4
  store i32 %1, ptr %5, align 4, !tbaa !8
  store ptr %2, ptr %6, align 8, !tbaa !4
  %7 = load i32, ptr %5, align 4, !tbaa !8
  %8 = and i32 %7, 221
  %9 = icmp ne i32 %8, 0
  br i1 %9, label %10, label %23

10:                                               ; preds = %3
  %11 = load i32, ptr %5, align 4, !tbaa !8
  %12 = and i32 %11, 1073741824
  %13 = icmp ne i32 %12, 0
  br i1 %13, label %14, label %17

14:                                               ; preds = %10
  %15 = load i32, ptr %5, align 4, !tbaa !8
  %16 = and i32 %15, -1073741825
  store i32 %16, ptr %5, align 4, !tbaa !8
  br label %22

17:                                               ; preds = %10
  %18 = load ptr, ptr %4, align 8, !tbaa !4
  %19 = call ptr @decNumberZero(ptr noundef %18)
  %20 = load ptr, ptr %4, align 8, !tbaa !4
  %21 = getelementptr inbounds nuw %struct.decNumber, ptr %20, i32 0, i32 2
  store i8 32, ptr %21, align 4, !tbaa !10
  br label %22

22:                                               ; preds = %17, %14
  br label %23

23:                                               ; preds = %22, %3
  %24 = load ptr, ptr %6, align 8, !tbaa !4
  %25 = load i32, ptr %5, align 4, !tbaa !8
  %26 = call ptr @decContextSetStatus(ptr noundef %24, i32 noundef %25)
  ret void
}

; Function Attrs: nounwind uwtable
define dso_local ptr @decNumberShift(ptr noundef %0, ptr noundef %1, ptr noundef %2, ptr noundef %3) #0 {
  %5 = alloca ptr, align 8
  %6 = alloca ptr, align 8
  %7 = alloca ptr, align 8
  %8 = alloca ptr, align 8
  %9 = alloca i32, align 4
  %10 = alloca i32, align 4
  store ptr %0, ptr %5, align 8, !tbaa !4
  store ptr %1, ptr %6, align 8, !tbaa !4
  store ptr %2, ptr %7, align 8, !tbaa !4
  store ptr %3, ptr %8, align 8, !tbaa !4
  call void @llvm.lifetime.start.p0(i64 4, ptr %9) #7
  store i32 0, ptr %9, align 4, !tbaa !8
  call void @llvm.lifetime.start.p0(i64 4, ptr %10) #7
  %11 = load ptr, ptr %6, align 8, !tbaa !4
  %12 = getelementptr inbounds nuw %struct.decNumber, ptr %11, i32 0, i32 2
  %13 = load i8, ptr %12, align 4, !tbaa !10
  %14 = zext i8 %13 to i32
  %15 = and i32 %14, 48
  %16 = icmp ne i32 %15, 0
  br i1 %16, label %24, label %17

17:                                               ; preds = %4
  %18 = load ptr, ptr %7, align 8, !tbaa !4
  %19 = getelementptr inbounds nuw %struct.decNumber, ptr %18, i32 0, i32 2
  %20 = load i8, ptr %19, align 4, !tbaa !10
  %21 = zext i8 %20 to i32
  %22 = and i32 %21, 48
  %23 = icmp ne i32 %22, 0
  br i1 %23, label %24, label %30

24:                                               ; preds = %17, %4
  %25 = load ptr, ptr %5, align 8, !tbaa !4
  %26 = load ptr, ptr %6, align 8, !tbaa !4
  %27 = load ptr, ptr %7, align 8, !tbaa !4
  %28 = load ptr, ptr %8, align 8, !tbaa !4
  %29 = call ptr @decNaNs(ptr noundef %25, ptr noundef %26, ptr noundef %27, ptr noundef %28, ptr noundef %9)
  br label %189

30:                                               ; preds = %17
  %31 = load ptr, ptr %7, align 8, !tbaa !4
  %32 = getelementptr inbounds nuw %struct.decNumber, ptr %31, i32 0, i32 2
  %33 = load i8, ptr %32, align 4, !tbaa !10
  %34 = zext i8 %33 to i32
  %35 = and i32 %34, 64
  %36 = icmp ne i32 %35, 0
  br i1 %36, label %42, label %37

37:                                               ; preds = %30
  %38 = load ptr, ptr %7, align 8, !tbaa !4
  %39 = getelementptr inbounds nuw %struct.decNumber, ptr %38, i32 0, i32 1
  %40 = load i32, ptr %39, align 4, !tbaa !19
  %41 = icmp ne i32 %40, 0
  br i1 %41, label %42, label %43

42:                                               ; preds = %37, %30
  store i32 128, ptr %9, align 4, !tbaa !8
  br label %188

43:                                               ; preds = %37
  %44 = load ptr, ptr %7, align 8, !tbaa !4
  %45 = call i32 @decGetInt(ptr noundef %44)
  store i32 %45, ptr %10, align 4, !tbaa !8
  %46 = load i32, ptr %10, align 4, !tbaa !8
  %47 = icmp eq i32 %46, -2147483648
  br i1 %47, label %61, label %48

48:                                               ; preds = %43
  %49 = load i32, ptr %10, align 4, !tbaa !8
  %50 = icmp eq i32 %49, -2147483645
  br i1 %50, label %61, label %51

51:                                               ; preds = %48
  %52 = load i32, ptr %10, align 4, !tbaa !8
  %53 = icmp eq i32 %52, -2147483646
  br i1 %53, label %61, label %54

54:                                               ; preds = %51
  %55 = load i32, ptr %10, align 4, !tbaa !8
  %56 = call i32 @llvm.abs.i32(i32 %55, i1 true)
  %57 = load ptr, ptr %8, align 8, !tbaa !4
  %58 = getelementptr inbounds nuw %struct.decContext, ptr %57, i32 0, i32 0
  %59 = load i32, ptr %58, align 4, !tbaa !33
  %60 = icmp sgt i32 %56, %59
  br i1 %60, label %61, label %62

61:                                               ; preds = %54, %51, %48, %43
  store i32 128, ptr %9, align 4, !tbaa !8
  br label %187

62:                                               ; preds = %54
  %63 = load ptr, ptr %5, align 8, !tbaa !4
  %64 = load ptr, ptr %6, align 8, !tbaa !4
  %65 = call ptr @decNumberCopy(ptr noundef %63, ptr noundef %64)
  %66 = load i32, ptr %10, align 4, !tbaa !8
  %67 = icmp ne i32 %66, 0
  br i1 %67, label %68, label %186

68:                                               ; preds = %62
  %69 = load ptr, ptr %5, align 8, !tbaa !4
  %70 = getelementptr inbounds nuw %struct.decNumber, ptr %69, i32 0, i32 2
  %71 = load i8, ptr %70, align 4, !tbaa !10
  %72 = zext i8 %71 to i32
  %73 = and i32 %72, 64
  %74 = icmp ne i32 %73, 0
  br i1 %74, label %186, label %75

75:                                               ; preds = %68
  %76 = load i32, ptr %10, align 4, !tbaa !8
  %77 = icmp sgt i32 %76, 0
  br i1 %77, label %78, label %137

78:                                               ; preds = %75
  %79 = load i32, ptr %10, align 4, !tbaa !8
  %80 = load ptr, ptr %8, align 8, !tbaa !4
  %81 = getelementptr inbounds nuw %struct.decContext, ptr %80, i32 0, i32 0
  %82 = load i32, ptr %81, align 4, !tbaa !33
  %83 = icmp eq i32 %79, %82
  br i1 %83, label %84, label %90

84:                                               ; preds = %78
  %85 = load ptr, ptr %5, align 8, !tbaa !4
  %86 = getelementptr inbounds nuw %struct.decNumber, ptr %85, i32 0, i32 3
  %87 = getelementptr inbounds [1 x i16], ptr %86, i64 0, i64 0
  store i16 0, ptr %87, align 2, !tbaa !14
  %88 = load ptr, ptr %5, align 8, !tbaa !4
  %89 = getelementptr inbounds nuw %struct.decNumber, ptr %88, i32 0, i32 0
  store i32 1, ptr %89, align 4, !tbaa !18
  br label %136

90:                                               ; preds = %78
  %91 = load ptr, ptr %5, align 8, !tbaa !4
  %92 = getelementptr inbounds nuw %struct.decNumber, ptr %91, i32 0, i32 0
  %93 = load i32, ptr %92, align 4, !tbaa !18
  %94 = load i32, ptr %10, align 4, !tbaa !8
  %95 = add nsw i32 %93, %94
  %96 = load ptr, ptr %8, align 8, !tbaa !4
  %97 = getelementptr inbounds nuw %struct.decContext, ptr %96, i32 0, i32 0
  %98 = load i32, ptr %97, align 4, !tbaa !33
  %99 = icmp sgt i32 %95, %98
  br i1 %99, label %100, label %112

100:                                              ; preds = %90
  %101 = load ptr, ptr %5, align 8, !tbaa !4
  %102 = load ptr, ptr %5, align 8, !tbaa !4
  %103 = getelementptr inbounds nuw %struct.decNumber, ptr %102, i32 0, i32 0
  %104 = load i32, ptr %103, align 4, !tbaa !18
  %105 = load i32, ptr %10, align 4, !tbaa !8
  %106 = add nsw i32 %104, %105
  %107 = load ptr, ptr %8, align 8, !tbaa !4
  %108 = getelementptr inbounds nuw %struct.decContext, ptr %107, i32 0, i32 0
  %109 = load i32, ptr %108, align 4, !tbaa !33
  %110 = sub nsw i32 %106, %109
  %111 = call ptr @decDecap(ptr noundef %101, i32 noundef %110)
  br label %112

112:                                              ; preds = %100, %90
  %113 = load ptr, ptr %5, align 8, !tbaa !4
  %114 = getelementptr inbounds nuw %struct.decNumber, ptr %113, i32 0, i32 0
  %115 = load i32, ptr %114, align 4, !tbaa !18
  %116 = icmp sgt i32 %115, 1
  br i1 %116, label %124, label %117

117:                                              ; preds = %112
  %118 = load ptr, ptr %5, align 8, !tbaa !4
  %119 = getelementptr inbounds nuw %struct.decNumber, ptr %118, i32 0, i32 3
  %120 = getelementptr inbounds [1 x i16], ptr %119, i64 0, i64 0
  %121 = load i16, ptr %120, align 2, !tbaa !14
  %122 = zext i16 %121 to i32
  %123 = icmp ne i32 %122, 0
  br i1 %123, label %124, label %135

124:                                              ; preds = %117, %112
  %125 = load ptr, ptr %5, align 8, !tbaa !4
  %126 = getelementptr inbounds nuw %struct.decNumber, ptr %125, i32 0, i32 3
  %127 = getelementptr inbounds [1 x i16], ptr %126, i64 0, i64 0
  %128 = load ptr, ptr %5, align 8, !tbaa !4
  %129 = getelementptr inbounds nuw %struct.decNumber, ptr %128, i32 0, i32 0
  %130 = load i32, ptr %129, align 4, !tbaa !18
  %131 = load i32, ptr %10, align 4, !tbaa !8
  %132 = call i32 @decShiftToMost(ptr noundef %127, i32 noundef %130, i32 noundef %131)
  %133 = load ptr, ptr %5, align 8, !tbaa !4
  %134 = getelementptr inbounds nuw %struct.decNumber, ptr %133, i32 0, i32 0
  store i32 %132, ptr %134, align 4, !tbaa !18
  br label %135

135:                                              ; preds = %124, %117
  br label %136

136:                                              ; preds = %135, %84
  br label %185

137:                                              ; preds = %75
  %138 = load i32, ptr %10, align 4, !tbaa !8
  %139 = sub nsw i32 0, %138
  %140 = load ptr, ptr %5, align 8, !tbaa !4
  %141 = getelementptr inbounds nuw %struct.decNumber, ptr %140, i32 0, i32 0
  %142 = load i32, ptr %141, align 4, !tbaa !18
  %143 = icmp sge i32 %139, %142
  br i1 %143, label %144, label %150

144:                                              ; preds = %137
  %145 = load ptr, ptr %5, align 8, !tbaa !4
  %146 = getelementptr inbounds nuw %struct.decNumber, ptr %145, i32 0, i32 3
  %147 = getelementptr inbounds [1 x i16], ptr %146, i64 0, i64 0
  store i16 0, ptr %147, align 2, !tbaa !14
  %148 = load ptr, ptr %5, align 8, !tbaa !4
  %149 = getelementptr inbounds nuw %struct.decNumber, ptr %148, i32 0, i32 0
  store i32 1, ptr %149, align 4, !tbaa !18
  br label %184

150:                                              ; preds = %137
  %151 = load ptr, ptr %5, align 8, !tbaa !4
  %152 = getelementptr inbounds nuw %struct.decNumber, ptr %151, i32 0, i32 3
  %153 = getelementptr inbounds [1 x i16], ptr %152, i64 0, i64 0
  %154 = load ptr, ptr %5, align 8, !tbaa !4
  %155 = getelementptr inbounds nuw %struct.decNumber, ptr %154, i32 0, i32 0
  %156 = load i32, ptr %155, align 4, !tbaa !18
  %157 = icmp sle i32 %156, 49
  br i1 %157, label %158, label %166

158:                                              ; preds = %150
  %159 = load ptr, ptr %5, align 8, !tbaa !4
  %160 = getelementptr inbounds nuw %struct.decNumber, ptr %159, i32 0, i32 0
  %161 = load i32, ptr %160, align 4, !tbaa !18
  %162 = sext i32 %161 to i64
  %163 = getelementptr inbounds [50 x i8], ptr @d2utable, i64 0, i64 %162
  %164 = load i8, ptr %163, align 1, !tbaa !25
  %165 = zext i8 %164 to i32
  br label %173

166:                                              ; preds = %150
  %167 = load ptr, ptr %5, align 8, !tbaa !4
  %168 = getelementptr inbounds nuw %struct.decNumber, ptr %167, i32 0, i32 0
  %169 = load i32, ptr %168, align 4, !tbaa !18
  %170 = add nsw i32 %169, 3
  %171 = sub nsw i32 %170, 1
  %172 = sdiv i32 %171, 3
  br label %173

173:                                              ; preds = %166, %158
  %174 = phi i32 [ %165, %158 ], [ %172, %166 ]
  %175 = load i32, ptr %10, align 4, !tbaa !8
  %176 = sub nsw i32 0, %175
  %177 = call i32 @decShiftToLeast(ptr noundef %153, i32 noundef %174, i32 noundef %176)
  %178 = load i32, ptr %10, align 4, !tbaa !8
  %179 = sub nsw i32 0, %178
  %180 = load ptr, ptr %5, align 8, !tbaa !4
  %181 = getelementptr inbounds nuw %struct.decNumber, ptr %180, i32 0, i32 0
  %182 = load i32, ptr %181, align 4, !tbaa !18
  %183 = sub nsw i32 %182, %179
  store i32 %183, ptr %181, align 4, !tbaa !18
  br label %184

184:                                              ; preds = %173, %144
  br label %185

185:                                              ; preds = %184, %136
  br label %186

186:                                              ; preds = %185, %68, %62
  br label %187

187:                                              ; preds = %186, %61
  br label %188

188:                                              ; preds = %187, %42
  br label %189

189:                                              ; preds = %188, %24
  %190 = load i32, ptr %9, align 4, !tbaa !8
  %191 = icmp ne i32 %190, 0
  br i1 %191, label %192, label %196

192:                                              ; preds = %189
  %193 = load ptr, ptr %5, align 8, !tbaa !4
  %194 = load i32, ptr %9, align 4, !tbaa !8
  %195 = load ptr, ptr %8, align 8, !tbaa !4
  call void @decStatus(ptr noundef %193, i32 noundef %194, ptr noundef %195)
  br label %196

196:                                              ; preds = %192, %189
  %197 = load ptr, ptr %5, align 8, !tbaa !4
  call void @llvm.lifetime.end.p0(i64 4, ptr %10) #7
  call void @llvm.lifetime.end.p0(i64 4, ptr %9) #7
  ret ptr %197
}