; Function Attrs: nounwind uwtable
define dso_local noundef ptr @decNumberShift(ptr noundef returned %0, ptr noundef captures(address) %1, ptr noundef captures(address) %2, ptr noundef %3) local_unnamed_addr #4 {
  %5 = alloca i32, align 4
  call void @llvm.lifetime.start.p0(i64 4, ptr nonnull %5) #18
  store i32 0, ptr %5, align 4, !tbaa !16
  %6 = getelementptr inbounds nuw i8, ptr %1, i64 8
  %7 = load i8, ptr %6, align 4, !tbaa !4
  %8 = and i8 %7, 48
  %.not = icmp eq i8 %8, 0
  br i1 %.not, label %9, label %74

9:                                                ; preds = %4
  %10 = getelementptr inbounds nuw i8, ptr %2, i64 8
  %11 = load i8, ptr %10, align 4, !tbaa !4
  %12 = zext i8 %11 to i32
  %13 = and i32 %12, 48
  %.not57 = icmp eq i32 %13, 0
  br i1 %.not57, label %14, label %74

14:                                               ; preds = %9
  %15 = and i32 %12, 64
  %.not58 = icmp eq i32 %15, 0
  br i1 %.not58, label %16, label %.thread69

16:                                               ; preds = %14
  %17 = getelementptr inbounds nuw i8, ptr %2, i64 4
  %18 = load i32, ptr %17, align 4, !tbaa !9
  %.not59 = icmp eq i32 %18, 0
  br i1 %.not59, label %19, label %.thread69

19:                                               ; preds = %16
  %20 = tail call fastcc i32 @decGetInt(ptr noundef nonnull %2)
  switch i32 %20, label %21 [
    i32 -2147483645, label %.thread69
    i32 -2147483646, label %.thread69
    i32 -2147483648, label %.thread69
  ]

21:                                               ; preds = %19
  %22 = tail call i32 @llvm.abs.i32(i32 %20, i1 true)
  %23 = load i32, ptr %3, align 4, !tbaa !25
  %24 = icmp sgt i32 %22, %23
  br i1 %24, label %.thread69, label %25

25:                                               ; preds = %21
  %26 = tail call ptr @decNumberCopy(ptr noundef %0, ptr noundef nonnull %1)
  %.not60 = icmp eq i32 %20, 0
  br i1 %.not60, label %.thread, label %27

27:                                               ; preds = %25
  %28 = getelementptr inbounds nuw i8, ptr %0, i64 8
  %29 = load i8, ptr %28, align 4, !tbaa !4
  %30 = and i8 %29, 64
  %.not61 = icmp eq i8 %30, 0
  br i1 %.not61, label %31, label %.thread

31:                                               ; preds = %27
  %32 = icmp sgt i32 %20, 0
  br i1 %32, label %33, label %54

33:                                               ; preds = %31
  %34 = load i32, ptr %3, align 4, !tbaa !25
  %35 = icmp eq i32 %20, %34
  br i1 %35, label %36, label %38

36:                                               ; preds = %33
  %37 = getelementptr inbounds nuw i8, ptr %0, i64 10
  store i16 0, ptr %37, align 2, !tbaa !11
  store i32 1, ptr %0, align 4, !tbaa !10
  br label %.thread

38:                                               ; preds = %33
  %39 = load i32, ptr %0, align 4, !tbaa !10
  %40 = add nsw i32 %39, %20
  %41 = icmp sgt i32 %40, %34
  br i1 %41, label %42, label %45

42:                                               ; preds = %38
  %43 = sub nsw i32 %40, %34
  %44 = tail call fastcc ptr @decDecap(ptr noundef nonnull %0, i32 noundef %43)
  %.pr = load i32, ptr %0, align 4, !tbaa !10
  br label %45

45:                                               ; preds = %42, %38
  %46 = phi i32 [ %.pr, %42 ], [ %39, %38 ]
  %47 = icmp sgt i32 %46, 1
  br i1 %47, label %51, label %48

48:                                               ; preds = %45
  %49 = getelementptr inbounds nuw i8, ptr %0, i64 10
  %50 = load i16, ptr %49, align 2, !tbaa !11
  %.not63 = icmp eq i16 %50, 0
  br i1 %.not63, label %.thread, label %51

51:                                               ; preds = %48, %45
  %52 = getelementptr inbounds nuw i8, ptr %0, i64 10
  %53 = tail call fastcc i32 @decShiftToMost(ptr noundef nonnull %52, i32 noundef %46, i32 noundef %20)
  store i32 %53, ptr %0, align 4, !tbaa !10
  br label %.thread

54:                                               ; preds = %31
  %55 = sub nsw i32 0, %20
  %56 = load i32, ptr %0, align 4, !tbaa !10
  %.not62 = icmp sgt i32 %56, %55
  %57 = getelementptr inbounds nuw i8, ptr %0, i64 10
  br i1 %.not62, label %59, label %58

58:                                               ; preds = %54
  store i16 0, ptr %57, align 2, !tbaa !11
  store i32 1, ptr %0, align 4, !tbaa !10
  br label %.thread

59:                                               ; preds = %54
  %60 = icmp samesign ult i32 %56, 50
  br i1 %60, label %61, label %66

61:                                               ; preds = %59
  %62 = zext nneg i32 %56 to i64
  %63 = getelementptr inbounds nuw [50 x i8], ptr @d2utable, i64 0, i64 %62
  %64 = load i8, ptr %63, align 1, !tbaa !19
  %65 = zext i8 %64 to i32
  br label %69

66:                                               ; preds = %59
  %67 = add nuw nsw i32 %56, 2
  %68 = udiv i32 %67, 3
  br label %69

69:                                               ; preds = %66, %61
  %70 = phi i32 [ %65, %61 ], [ %68, %66 ]
  %71 = tail call fastcc i32 @decShiftToLeast(ptr noundef nonnull %57, i32 noundef %70, i32 noundef %55)
  %72 = load i32, ptr %0, align 4, !tbaa !10
  %73 = add nsw i32 %72, %20
  store i32 %73, ptr %0, align 4, !tbaa !10
  br label %.thread

74:                                               ; preds = %4, %9
  %75 = call fastcc ptr @decNaNs(ptr noundef %0, ptr noundef nonnull %1, ptr noundef %2, ptr noundef %3, ptr noundef %5)
  %.pr65.pre = load i32, ptr %5, align 4, !tbaa !16
  %.not64 = icmp eq i32 %.pr65.pre, 0
  br i1 %.not64, label %.thread, label %76

76:                                               ; preds = %74
  %77 = and i32 %.pr65.pre, 221
  %.not.i = icmp eq i32 %77, 0
  br i1 %.not.i, label %decStatus.exit, label %78

78:                                               ; preds = %76
  %79 = and i32 %.pr65.pre, 1073741824
  %.not6.i = icmp eq i32 %79, 0
  br i1 %.not6.i, label %.thread69, label %80

80:                                               ; preds = %78
  %81 = and i32 %.pr65.pre, -1073741825
  br label %decStatus.exit

.thread69:                                        ; preds = %21, %19, %19, %19, %14, %16, %78
  %82 = phi i32 [ %.pr65.pre, %78 ], [ 128, %16 ], [ 128, %14 ], [ 128, %19 ], [ 128, %19 ], [ 128, %19 ], [ 128, %21 ]
  %83 = getelementptr inbounds nuw i8, ptr %0, i64 8
  %84 = getelementptr inbounds nuw i8, ptr %0, i64 4
  store i32 0, ptr %84, align 4, !tbaa !9
  store i32 1, ptr %0, align 4, !tbaa !10
  %85 = getelementptr inbounds nuw i8, ptr %0, i64 10
  store i16 0, ptr %85, align 2, !tbaa !11
  store i8 32, ptr %83, align 4, !tbaa !4
  br label %decStatus.exit

decStatus.exit:                                   ; preds = %76, %80, %.thread69
  %.0.i = phi i32 [ %81, %80 ], [ %82, %.thread69 ], [ %.pr65.pre, %76 ]
  %86 = tail call ptr @decContextSetStatus(ptr noundef %3, i32 noundef %.0.i) #18
  br label %.thread

.thread:                                          ; preds = %48, %51, %36, %69, %58, %27, %25, %decStatus.exit, %74
  call void @llvm.lifetime.end.p0(i64 4, ptr nonnull %5) #18
  ret ptr %0
}